target datalayout = "e-m:e-p270:32:32-p271:32:32-p272:64:64-i64:64-i128:128-f80:128-n8:16:32:64-S128"
target triple = "x86_64-pc-linux-gnu"

%struct.H5S_t = type { %struct.H5S_extent_t, %struct.H5S_select_t }
%struct.H5S_extent_t = type { %struct.H5O_shared_t, i32, i32, i64, i32, ptr, ptr }
%struct.H5O_shared_t = type { i32, ptr, i32, %union.anon }
%union.anon = type { %struct.H5O_mesg_loc_t }
%struct.H5O_mesg_loc_t = type { i32, i64 }
%struct.H5S_select_t = type { ptr, i8, [32 x i64], i64, %union.anon.0 }
%union.anon.0 = type { ptr }

@H5S_init_g = external global i8, align 1
@H5_libterm_g = external global i8, align 1
@H5S_hyper_op_gen_g = internal global i64 1, align 8
@.str = private unnamed_addr constant [102 x i8] c"generated/home/dtcxzyw/WorkSpace/Projects/compilers/llvm-opt-benchmark/bench/hdf5/hdf5/src/H5Shyper.c\00", align 1
@H5E_DATASPACE_g = external global i64, align 8
@H5E_CANTINSERT_g = external global i64, align 8
@H5E_CANTFREE_g = external global i64, align 8
@.str.13 = private unnamed_addr constant [25 x i8] c"unable to free span info\00", align 1
@__func__.H5S__hyper_add_disjoint_spans = private unnamed_addr constant [30 x i8] c"H5S__hyper_add_disjoint_spans\00", align 1
@.str.109 = private unnamed_addr constant [23 x i8] c"can't merge hyperslabs\00", align 1

; Function Attrs: nounwind uwtable
define i64 @H5S__hyper_get_op_gen() #0 {
  %1 = load i8, ptr @H5S_init_g, align 1, !tbaa !8, !range !12, !noundef !13
  %2 = trunc i8 %1 to i1
  br i1 %2, label %7, label %3

3:                                                ; preds = %0
  %4 = load i8, ptr @H5_libterm_g, align 1, !tbaa !8, !range !12, !noundef !13
  %5 = trunc i8 %4 to i1
  %6 = xor i1 %5, true
  br label %7

7:                                                ; preds = %3, %0
  %8 = phi i1 [ true, %0 ], [ %6, %3 ]
  %9 = xor i1 %8, true
  %10 = xor i1 %9, true
  %11 = zext i1 %10 to i32
  %12 = sext i32 %11 to i64
  %13 = call i64 @llvm.expect.i64(i64 %12, i64 1)
  %14 = icmp ne i64 %13, 0
  br i1 %14, label %15, label %16

15:                                               ; preds = %7
  br label %16

16:                                               ; preds = %15, %7
  %17 = load i64, ptr @H5S_hyper_op_gen_g, align 8, !tbaa !15
  %18 = add i64 %17, 1
  store i64 %18, ptr @H5S_hyper_op_gen_g, align 8, !tbaa !15
  ret i64 %17
}

; Function Attrs: nounwind uwtable
define internal i64 @H5S__hyper_spans_nelem(ptr noundef %0) #0 {
  %2 = alloca ptr, align 8
  %3 = alloca i64, align 8
  %4 = alloca i64, align 8
  store ptr %0, ptr %2, align 8, !tbaa !107
  call void @llvm.lifetime.start.p0(i64 8, ptr %3) #7
  call void @llvm.lifetime.start.p0(i64 8, ptr %4) #7
  store i64 0, ptr %4, align 8, !tbaa !15
  %5 = load i8, ptr @H5S_init_g, align 1, !tbaa !8, !range !12, !noundef !13
  %6 = trunc i8 %5 to i1
  br i1 %6, label %11, label %7

7:                                                ; preds = %1
  %8 = load i8, ptr @H5_libterm_g, align 1, !tbaa !8, !range !12, !noundef !13
  %9 = trunc i8 %8 to i1
  %10 = xor i1 %9, true
  br label %11

11:                                               ; preds = %7, %1
  %12 = phi i1 [ true, %1 ], [ %10, %7 ]
  %13 = xor i1 %12, true
  %14 = xor i1 %13, true
  %15 = zext i1 %14 to i32
  %16 = sext i32 %15 to i64
  %17 = call i64 @llvm.expect.i64(i64 %16, i64 1)
  %18 = icmp ne i64 %17, 0
  br i1 %18, label %19, label %24

19:                                               ; preds = %11
  %20 = call i64 @H5S__hyper_get_op_gen()
  store i64 %20, ptr %3, align 8, !tbaa !15
  %21 = load ptr, ptr %2, align 8, !tbaa !107
  %22 = load i64, ptr %3, align 8, !tbaa !15
  %23 = call i64 @H5S__hyper_spans_nelem_helper(ptr noundef %21, i32 noundef 0, i64 noundef %22)
  store i64 %23, ptr %4, align 8, !tbaa !15
  br label %24

24:                                               ; preds = %19, %11
  %25 = load i64, ptr %4, align 8, !tbaa !15
  call void @llvm.lifetime.end.p0(i64 8, ptr %4) #7
  call void @llvm.lifetime.end.p0(i64 8, ptr %3) #7
  ret i64 %25
}

; Function Attrs: nounwind uwtable
define internal i32 @H5S__hyper_add_disjoint_spans(ptr noundef %0, ptr noundef %1) #0 {
  %3 = alloca ptr, align 8
  %4 = alloca ptr, align 8
  %5 = alloca i32, align 4
  %6 = alloca i8, align 1
  store ptr %0, ptr %3, align 8, !tbaa !3
  store ptr %1, ptr %4, align 8, !tbaa !107
  call void @llvm.lifetime.start.p0(i64 4, ptr %5) #7
  store i32 0, ptr %5, align 4, !tbaa !10
  call void @llvm.lifetime.start.p0(i64 1, ptr %6) #7
  store i8 0, ptr %6, align 1, !tbaa !8
  %7 = load i8, ptr @H5S_init_g, align 1, !tbaa !8, !range !12, !noundef !13
  %8 = trunc i8 %7 to i1
  br i1 %8, label %13, label %9

9:                                                ; preds = %2
  %10 = load i8, ptr @H5_libterm_g, align 1, !tbaa !8, !range !12, !noundef !13
  %11 = trunc i8 %10 to i1
  %12 = xor i1 %11, true
  br label %13

13:                                               ; preds = %9, %2
  %14 = phi i1 [ true, %2 ], [ %12, %9 ]
  %15 = xor i1 %14, true
  %16 = xor i1 %15, true
  %17 = zext i1 %16 to i32
  %18 = sext i32 %17 to i64
  %19 = call i64 @llvm.expect.i64(i64 %18, i64 1)
  %20 = icmp ne i64 %19, 0
  br i1 %20, label %21, label %77

21:                                               ; preds = %13
  %22 = load ptr, ptr %4, align 8, !tbaa !107
  %23 = call i64 @H5S__hyper_spans_nelem(ptr noundef %22)
  %24 = load ptr, ptr %3, align 8, !tbaa !3
  %25 = getelementptr inbounds nuw %struct.H5S_t, ptr %24, i32 0, i32 1
  %26 = getelementptr inbounds nuw %struct.H5S_select_t, ptr %25, i32 0, i32 3
  %27 = load i64, ptr %26, align 8, !tbaa !32
  %28 = add i64 %27, %23
  store i64 %28, ptr %26, align 8, !tbaa !32
  %29 = load ptr, ptr %3, align 8, !tbaa !3
  %30 = load ptr, ptr %4, align 8, !tbaa !107
  %31 = call i32 @H5S__hyper_merge_spans(ptr noundef %29, ptr noundef %30)
  %32 = icmp slt i32 %31, 0
  br i1 %32, label %33, label %52

33:                                               ; preds = %21
  br label %34

34:                                               ; preds = %33
  br label %35

35:                                               ; preds = %34
  br label %36

36:                                               ; preds = %35
  %37 = load i64, ptr @H5E_DATASPACE_g, align 8, !tbaa !15
  %38 = load i64, ptr @H5E_CANTINSERT_g, align 8, !tbaa !15
  %39 = call i32 (ptr, ptr, i32, i64, i64, ptr, ...) @H5E_printf_stack(ptr noundef @.str, ptr noundef @__func__.H5S__hyper_add_disjoint_spans, i32 noundef 8558, i64 noundef %37, i64 noundef %38, ptr noundef @.str.109)
  br label %40

40:                                               ; preds = %36
  br label %41

41:                                               ; preds = %40
  store i8 1, ptr %6, align 1, !tbaa !8
  %42 = load i8, ptr %6, align 1, !tbaa !8, !range !12, !noundef !13
  %43 = trunc i8 %42 to i1
  %44 = zext i1 %43 to i8
  store i8 %44, ptr %6, align 1, !tbaa !8
  br label %45

45:                                               ; preds = %41
  br label %46

46:                                               ; preds = %45
  br label %47

47:                                               ; preds = %46
  store i32 -1, ptr %5, align 4, !tbaa !10
  br label %76

48:                                               ; No predecessors!
  br label %49

49:                                               ; preds = %48
  br label %50

50:                                               ; preds = %49
  br label %51

51:                                               ; preds = %50
  br label %52

52:                                               ; preds = %51, %21
  %53 = load ptr, ptr %4, align 8, !tbaa !107
  %54 = call i32 @H5S__hyper_free_span_info(ptr noundef %53)
  %55 = icmp slt i32 %54, 0
  br i1 %55, label %56, label %75

56:                                               ; preds = %52
  br label %57

57:                                               ; preds = %56
  br label %58

58:                                               ; preds = %57
  br label %59

59:                                               ; preds = %58
  %60 = load i64, ptr @H5E_DATASPACE_g, align 8, !tbaa !15
  %61 = load i64, ptr @H5E_CANTFREE_g, align 8, !tbaa !15
  %62 = call i32 (ptr, ptr, i32, i64, i64, ptr, ...) @H5E_printf_stack(ptr noundef @.str, ptr noundef @__func__.H5S__hyper_add_disjoint_spans, i32 noundef 8562, i64 noundef %60, i64 noundef %61, ptr noundef @.str.13)
  br label %63

63:                                               ; preds = %59
  br label %64

64:                                               ; preds = %63
  store i8 1, ptr %6, align 1, !tbaa !8
  %65 = load i8, ptr %6, align 1, !tbaa !8, !range !12, !noundef !13
  %66 = trunc i8 %65 to i1
  %67 = zext i1 %66 to i8
  store i8 %67, ptr %6, align 1, !tbaa !8
  br label %68

68:                                               ; preds = %64
  br label %69

69:                                               ; preds = %68
  br label %70

70:                                               ; preds = %69
  store i32 -1, ptr %5, align 4, !tbaa !10
  br label %76

71:                                               ; No predecessors!
  br label %72

72:                                               ; preds = %71
  br label %73

73:                                               ; preds = %72
  br label %74

74:                                               ; preds = %73
  br label %75

75:                                               ; preds = %74, %52
  br label %76

76:                                               ; preds = %75, %70, %47
  br label %77

77:                                               ; preds = %76, %13
  %78 = load i32, ptr %5, align 4, !tbaa !10
  call void @llvm.lifetime.end.p0(i64 1, ptr %6) #7
  call void @llvm.lifetime.end.p0(i64 4, ptr %5) #7
  ret i32 %78
}