; Function Attrs: nounwind uwtable
define internal fastcc range(i32 -1, 1) i32 @H5S__hyper_add_disjoint_spans(ptr noundef captures(none) %0, ptr noundef %1) unnamed_addr #0 {
  %3 = load i8, ptr @H5S_init_g, align 1, !tbaa !3, !range !7, !noundef !8
  %4 = trunc nuw i8 %3 to i1
  %5 = load i8, ptr @H5_libterm_g, align 1, !range !7
  %6 = trunc nuw i8 %5 to i1
  %7 = xor i1 %6, true
  %8 = select i1 %4, i1 true, i1 %7
  br i1 %8, label %H5S__hyper_spans_nelem.exit, label %28, !prof !9

H5S__hyper_spans_nelem.exit:                      ; preds = %2
  %9 = load i64, ptr @H5S_hyper_op_gen_g, align 8, !tbaa !11
  %10 = add i64 %9, 1
  store i64 %10, ptr @H5S_hyper_op_gen_g, align 8, !tbaa !11
  %11 = tail call fastcc i64 @H5S__hyper_spans_nelem_helper(ptr noundef %1, i64 noundef %9)
  %12 = getelementptr inbounds nuw i8, ptr %0, i64 352
  %13 = load i64, ptr %12, align 8, !tbaa !30
  %14 = add i64 %13, %11
  store i64 %14, ptr %12, align 8, !tbaa !30
  %15 = tail call fastcc i32 @H5S__hyper_merge_spans(ptr noundef %0, ptr noundef %1)
  %16 = icmp slt i32 %15, 0
  br i1 %16, label %17, label %21

17:                                               ; preds = %H5S__hyper_spans_nelem.exit
  %18 = load i64, ptr @H5E_DATASPACE_g, align 8, !tbaa !11
  %19 = load i64, ptr @H5E_CANTINSERT_g, align 8, !tbaa !11
  %20 = tail call i32 (ptr, ptr, i32, i64, i64, ptr, ...) @H5E_printf_stack(ptr noundef nonnull @.str, ptr noundef nonnull @__func__.H5S__hyper_add_disjoint_spans, i32 noundef 8558, i64 noundef %18, i64 noundef %19, ptr noundef nonnull @.str.109) #14
  br label %28

21:                                               ; preds = %H5S__hyper_spans_nelem.exit
  %22 = tail call fastcc i32 @H5S__hyper_free_span_info(ptr noundef %1)
  %23 = icmp slt i32 %22, 0
  br i1 %23, label %24, label %28

24:                                               ; preds = %21
  %25 = load i64, ptr @H5E_DATASPACE_g, align 8, !tbaa !11
  %26 = load i64, ptr @H5E_CANTFREE_g, align 8, !tbaa !11
  %27 = tail call i32 (ptr, ptr, i32, i64, i64, ptr, ...) @H5E_printf_stack(ptr noundef nonnull @.str, ptr noundef nonnull @__func__.H5S__hyper_add_disjoint_spans, i32 noundef 8562, i64 noundef %25, i64 noundef %26, ptr noundef nonnull @.str.13) #14
  br label %28

28:                                               ; preds = %17, %24, %21, %2
  %.0 = phi i32 [ -1, %17 ], [ -1, %24 ], [ 0, %21 ], [ 0, %2 ]
  ret i32 %.0
}